target datalayout = "e-m:e-p270:32:32-p271:32:32-p272:64:64-i64:64-i128:128-f80:128-n8:16:32:64-S128"
target triple = "x86_64-pc-linux-gnu"

%struct.AVBSFContext = type { ptr, ptr, ptr, ptr, ptr, %struct.AVRational, %struct.AVRational }
%struct.AVRational = type { i32, i32 }
%struct.AV1FSplitContext = type { ptr, ptr, %struct.CodedBitstreamFragment, i32, i32, i32, i32 }
%struct.CodedBitstreamFragment = type { ptr, i64, i64, ptr, i32, i32, ptr }

; Function Attrs: nounwind uwtable
define internal void @av1_frame_split_close(ptr noundef %0) #0 {
  %2 = alloca ptr, align 8
  %3 = alloca ptr, align 8
  store ptr %0, ptr %2, align 8, !tbaa !4
  call void @llvm.lifetime.start.p0(i64 8, ptr %3) #4
  %4 = load ptr, ptr %2, align 8, !tbaa !4
  %5 = getelementptr inbounds nuw %struct.AVBSFContext, ptr %4, i32 0, i32 2
  %6 = load ptr, ptr %5, align 8, !tbaa !9
  store ptr %6, ptr %3, align 8, !tbaa !16
  %7 = load ptr, ptr %3, align 8, !tbaa !16
  %8 = getelementptr inbounds nuw %struct.AV1FSplitContext, ptr %7, i32 0, i32 0
  call void @av_packet_free(ptr noundef %8)
  %9 = load ptr, ptr %3, align 8, !tbaa !16
  %10 = getelementptr inbounds nuw %struct.AV1FSplitContext, ptr %9, i32 0, i32 2
  call void @ff_cbs_fragment_free(ptr noundef %10)
  %11 = load ptr, ptr %3, align 8, !tbaa !16
  %12 = getelementptr inbounds nuw %struct.AV1FSplitContext, ptr %11, i32 0, i32 1
  call void @ff_cbs_close(ptr noundef %12)
  call void @llvm.lifetime.end.p0(i64 8, ptr %3) #4
  ret void
}